Certificate:
    Data:
        Version: 3 (0x2)
        Serial Number:
            69:5b:a3:55:8b:1b:68:6a:44:35:3e:a5:8f:c9:ca:e0
        Signature Algorithm: sha256WithRSAEncryption
        Issuer: CN=bob
        Validity
            Not Before: Dec 29 14:21:23 2020 GMT
            Not After : Apr  3 14:21:23 2023 GMT
        Subject: CN=broker
        Subject Public Key Info:
            Public Key Algorithm: rsaEncryption
                RSA Public-Key: (2048 bit)
                Modulus:
                    00:bc:5a:45:37:59:78:65:a1:73:e8:c6:ad:61:6c:
                    f0:2c:a5:25:55:99:0e:3e:1f:3c:77:3d:86:5e:43:
                    ce:4e:3d:af:f9:51:1d:6b:dd:61:89:12:2f:d5:8b:
                    e3:5c:b4:69:39:04:27:f8:7e:01:89:db:3c:a2:45:
                    1f:52:c8:18:2e:ab:32:7b:97:3c:2b:43:e3:40:da:
                    db:d0:e8:95:9b:f3:b9:a9:c4:77:cd:b3:50:ec:1e:
                    b5:c8:cb:16:7c:64:0a:b1:94:84:e5:3c:be:ec:91:
                    41:5f:2a:22:c9:9b:fc:73:a8:ff:77:66:85:72:96:
                    97:13:7c:b5:8d:c1:40:95:12:9f:7a:d0:60:77:b3:
                    4c:64:95:36:90:94:68:0a:4e:93:3f:4b:01:03:c3:
                    bf:27:28:c9:5c:5c:5b:c3:4b:0f:ed:9f:e0:f0:08:
                    25:ae:d6:13:79:f3:3d:6f:dd:44:b7:69:4e:03:4d:
                    eb:09:15:a2:2a:74:1f:fa:48:72:fc:02:56:db:92:
                    ca:a0:79:83:b3:bc:75:36:d8:7b:28:4c:60:4c:d7:
                    54:9b:67:c4:4c:40:f8:49:da:83:96:59:79:09:44:
                    c4:1e:c0:c5:2a:b3:46:a8:c4:c3:9f:e3:93:91:17:
                    fd:ac:b0:13:35:91:7e:29:83:e8:a7:75:c6:c5:8a:
                    c1:05
                Exponent: 65537 (0x10001)
        X509v3 extensions:
            X509v3 Basic Constraints: 
                CA:FALSE
            X509v3 Subject Key Identifier: 
                A5:EB:A5:FE:23:BE:2A:84:56:C5:FD:71:CB:15:0A:8A:37:B4:1C:5C
            X509v3 Authority Key Identifier: 
                keyid:F9:93:6F:61:FF:43:FE:E7:10:BE:F6:C2:CE:01:E4:68:7A:5F:38:42
                DirName:/CN=bob
                serial:0B:D0:F0:4C:68:F6:74:A9:3A:B7:96:31:E7:96:89:4D:A4:55:7F:C5

            X509v3 Extended Key Usage: 
                TLS Web Server Authentication
            X509v3 Key Usage: 
                Digital Signature, Key Encipherment
            X509v3 Subject Alternative Name: 
                DNS:broker
    Signature Algorithm: sha256WithRSAEncryption
         b9:69:ee:76:88:db:16:68:f3:5f:90:ba:ad:f1:0d:85:4e:9d:
         f7:84:9e:e3:cb:44:08:5a:36:f7:91:1b:76:49:b8:2e:21:ac:
         fd:e0:29:90:0a:36:78:46:b7:fe:fb:7f:73:c3:14:84:e2:4c:
         a9:ee:fe:8c:33:a6:c9:72:7c:cf:81:96:85:78:c9:47:55:a6:
         67:32:2b:9b:4a:cd:3a:58:5f:db:5a:b6:2c:c8:c5:e9:3d:be:
         8b:e5:05:ad:4a:66:48:34:08:f1:f2:20:05:7a:05:32:85:4d:
         cd:e7:5b:77:bc:b8:45:b5:ea:a3:e3:56:8e:38:f7:5f:fd:79:
         da:be:b6:5d:2a:22:01:46:70:f2:a2:85:d2:ae:e4:eb:5c:8b:
         cf:bc:78:ad:a0:a2:bd:60:ae:a7:6d:11:d7:d4:bb:7a:45:77:
         32:6a:66:77:74:be:b6:d5:f7:fe:37:d0:5a:16:35:21:09:f6:
         42:79:7f:6b:07:43:33:54:33:57:d1:39:54:2f:f1:b8:df:a1:
         1b:1f:c0:18:73:b1:56:60:46:4e:12:73:d2:73:33:89:47:1e:
         2a:3f:ef:a7:dc:1b:f7:cc:fa:2d:5b:81:d5:ca:8a:3b:1f:8b:
         c3:c2:b2:27:b5:06:fb:06:87:8e:00:6c:cf:07:08:39:50:e3:
         fa:cc:b3:28
-----BEGIN CERTIFICATE-----
MIIDVzCCAj+gAwIBAgIQaVujVYsbaGpENT6lj8nK4DANBgkqhkiG9w0BAQsFADAO
MQwwCgYDVQQDDANib2IwHhcNMjAxMjI5MTQyMTIzWhcNMjMwNDAzMTQyMTIzWjAR
MQ8wDQYDVQQDDAZicm9rZXIwggEiMA0GCSqGSIb3DQEBAQUAA4IBDwAwggEKAoIB
AQC8WkU3WXhloXPoxq1hbPAspSVVmQ4+Hzx3PYZeQ85OPa/5UR1r3WGJEi/Vi+Nc
tGk5BCf4fgGJ2zyiRR9SyBguqzJ7lzwrQ+NA2tvQ6JWb87mpxHfNs1DsHrXIyxZ8
ZAqxlITlPL7skUFfKiLJm/xzqP93ZoVylpcTfLWNwUCVEp960GB3s0xklTaQlGgK
TpM/SwEDw78nKMlcXFvDSw/tn+DwCCWu1hN58z1v3US3aU4DTesJFaIqdB/6SHL8
AlbbksqgeYOzvHU22HsoTGBM11SbZ8RMQPhJ2oOWWXkJRMQewMUqs0aoxMOf45OR
F/2ssBM1kX4pg+indcbFisEFAgMBAAGjga0wgaowCQYDVR0TBAIwADAdBgNVHQ4E
FgQUpeul/iO+KoRWxf1xyxUKije0HFwwSQYDVR0jBEIwQIAU+ZNvYf9D/ucQvvbC
zgHkaHpfOEKhEqQQMA4xDDAKBgNVBAMMA2JvYoIUC9DwTGj2dKk6t5Yx55aJTaRV
f8UwEwYDVR0lBAwwCgYIKwYBBQUHAwEwCwYDVR0PBAQDAgWgMBEGA1UdEQQKMAiC
BmJyb2tlcjANBgkqhkiG9w0BAQsFAAOCAQEAuWnudojbFmjzX5C6rfENhU6d94Se
48tECFo295Ebdkm4LiGs/eApkAo2eEa3/vt/c8MUhOJMqe7+jDOmyXJ8z4GWhXjJ
R1WmZzIrm0rNOlhf21q2LMjF6T2+i+UFrUpmSDQI8fIgBXoFMoVNzedbd7y4RbXq
o+NWjjj3X/152r62XSoiAUZw8qKF0q7k61yLz7x4raCivWCup20R19S7ekV3Mmpm
d3S+ttX3/jfQWhY1IQn2Qnl/awdDM1QzV9E5VC/xuN+hGx/AGHOxVmBGThJz0nMz
iUceKj/vp9wb98z6LVuB1cqKOx+Lw8KyJ7UG+waHjgBszwcIOVDj+syzKA==
-----END CERTIFICATE-----
