Certificate:
    Data:
        Version: 3 (0x2)
        Serial Number:
            5a:84:4b:d0:89:95:85:e3:1b:df:23:57:a8:50:84:ab
        Signature Algorithm: sha256WithRSAEncryption
        Issuer: CN=bob
        Validity
            Not Before: Dec 29 14:21:51 2020 GMT
            Not After : Apr  3 14:21:51 2023 GMT
        Subject: CN=client3
        Subject Public Key Info:
            Public Key Algorithm: rsaEncryption
                RSA Public-Key: (2048 bit)
                Modulus:
                    00:b9:df:8d:a3:de:b6:0d:0a:f0:a2:20:4b:5e:33:
                    7a:1f:93:9a:ca:9d:6d:23:c1:a8:e8:01:a9:51:1a:
                    20:8e:ea:c5:93:f5:c9:0e:22:1d:6e:d8:f1:f2:26:
                    f1:95:60:79:4b:c4:42:be:5b:a9:27:d5:7d:07:be:
                    cc:6f:50:a3:c0:0a:ea:e2:7a:4d:22:81:a2:27:31:
                    52:65:0f:c0:c1:c6:ba:20:7f:39:03:75:42:8d:4a:
                    70:5b:23:ee:4b:24:a2:59:16:15:28:04:eb:c0:ca:
                    94:94:b5:eb:1e:4f:2a:09:75:a9:ec:b1:75:61:4f:
                    e3:6a:6c:79:72:87:3c:b5:56:0e:cf:37:87:5d:d4:
                    7f:cf:d8:aa:32:1c:fb:7b:a3:ac:61:ec:e7:12:b6:
                    b7:4e:04:e3:01:a6:14:6c:5a:0a:7a:91:4e:0c:50:
                    89:f0:79:02:af:9b:38:67:96:a0:7f:9f:fb:4d:da:
                    c9:39:f0:87:f3:e1:8c:a9:ca:01:32:c8:63:3b:f5:
                    a9:83:dd:0b:09:07:95:ba:1c:ea:39:2f:d5:cb:44:
                    32:68:28:0c:47:0f:79:98:ef:a1:1b:db:82:f1:cb:
                    8a:5d:41:69:40:51:ce:be:8a:b1:42:17:1a:10:96:
                    5a:b8:36:87:ee:8b:86:47:45:a5:7f:86:ff:e2:53:
                    a1:5d
                Exponent: 65537 (0x10001)
        X509v3 extensions:
            X509v3 Basic Constraints: 
                CA:FALSE
            X509v3 Subject Key Identifier: 
                35:02:3C:B2:08:B8:9C:B0:B2:C4:45:36:F4:20:B5:14:FE:23:30:A4
            X509v3 Authority Key Identifier: 
                keyid:F9:93:6F:61:FF:43:FE:E7:10:BE:F6:C2:CE:01:E4:68:7A:5F:38:42
                DirName:/CN=bob
                serial:0B:D0:F0:4C:68:F6:74:A9:3A:B7:96:31:E7:96:89:4D:A4:55:7F:C5

            X509v3 Extended Key Usage: 
                TLS Web Client Authentication
            X509v3 Key Usage: 
                Digital Signature
    Signature Algorithm: sha256WithRSAEncryption
         1d:3e:a1:e4:eb:46:47:ac:3d:3c:4c:e3:58:ad:b8:5b:88:2f:
         19:4e:a7:5e:d9:f6:ca:d8:23:92:e4:69:ec:c0:d6:74:a1:47:
         6d:2a:f7:ab:99:4f:c6:2b:c0:a2:a3:86:bb:61:0b:47:e8:59:
         a0:ec:3f:eb:ab:0f:a0:2c:29:7a:d0:55:f7:eb:c7:23:df:dc:
         a9:c1:f9:e2:12:d1:26:8f:fc:9e:9a:94:1e:15:75:b6:a1:a9:
         c1:21:ac:c7:60:c6:40:aa:2b:fa:71:83:75:02:64:4a:d8:74:
         7c:73:3c:0f:ed:ae:80:6c:8d:e3:7e:d4:6c:f9:f9:78:8a:f2:
         be:ec:c3:34:79:df:43:a6:0b:b7:ff:10:43:e3:c1:c7:8b:48:
         9c:4b:ac:95:75:87:00:6f:9a:f8:c2:50:57:27:31:9c:3f:a5:
         db:b2:60:c8:ad:7a:19:7b:30:2a:ac:e2:92:65:24:0d:69:43:
         4b:92:c0:bc:a4:8e:ed:a2:bc:71:e3:f8:29:91:2b:97:07:56:
         10:4b:7d:72:46:99:dc:d6:14:6f:ef:b7:8e:73:e8:e4:8e:7d:
         f5:bc:27:f7:1b:8e:0d:b1:f5:01:86:08:83:14:8b:4a:6f:fe:
         53:0a:d1:42:b5:58:5c:63:76:ea:80:c2:60:f5:1e:e2:f0:d3:
         f8:03:60:5d
-----BEGIN CERTIFICATE-----
MIIDRTCCAi2gAwIBAgIQWoRL0ImVheMb3yNXqFCEqzANBgkqhkiG9w0BAQsFADAO
MQwwCgYDVQQDDANib2IwHhcNMjAxMjI5MTQyMTUxWhcNMjMwNDAzMTQyMTUxWjAS
MRAwDgYDVQQDDAdjbGllbnQzMIIBIjANBgkqhkiG9w0BAQEFAAOCAQ8AMIIBCgKC
AQEAud+No962DQrwoiBLXjN6H5Oayp1tI8Go6AGpURogjurFk/XJDiIdbtjx8ibx
lWB5S8RCvlupJ9V9B77Mb1CjwArq4npNIoGiJzFSZQ/Awca6IH85A3VCjUpwWyPu
SySiWRYVKATrwMqUlLXrHk8qCXWp7LF1YU/jamx5coc8tVYOzzeHXdR/z9iqMhz7
e6OsYeznEra3TgTjAaYUbFoKepFODFCJ8HkCr5s4Z5agf5/7TdrJOfCH8+GMqcoB
MshjO/Wpg90LCQeVuhzqOS/Vy0QyaCgMRw95mO+hG9uC8cuKXUFpQFHOvoqxQhca
EJZauDaH7ouGR0Wlf4b/4lOhXQIDAQABo4GaMIGXMAkGA1UdEwQCMAAwHQYDVR0O
BBYEFDUCPLIIuJywssRFNvQgtRT+IzCkMEkGA1UdIwRCMECAFPmTb2H/Q/7nEL72
ws4B5Gh6XzhCoRKkEDAOMQwwCgYDVQQDDANib2KCFAvQ8Exo9nSpOreWMeeWiU2k
VX/FMBMGA1UdJQQMMAoGCCsGAQUFBwMCMAsGA1UdDwQEAwIHgDANBgkqhkiG9w0B
AQsFAAOCAQEAHT6h5OtGR6w9PEzjWK24W4gvGU6nXtn2ytgjkuRp7MDWdKFHbSr3
q5lPxivAoqOGu2ELR+hZoOw/66sPoCwpetBV9+vHI9/cqcH54hLRJo/8npqUHhV1
tqGpwSGsx2DGQKor+nGDdQJkSth0fHM8D+2ugGyN437UbPn5eIryvuzDNHnfQ6YL
t/8QQ+PBx4tInEuslXWHAG+a+MJQVycxnD+l27JgyK16GXswKqzikmUkDWlDS5LA
vKSO7aK8ceP4KZErlwdWEEt9ckaZ3NYUb++3jnPo5I599bwn9xuODbH1AYYIgxSL
Sm/+UwrRQrVYXGN26oDCYPUe4vDT+ANgXQ==
-----END CERTIFICATE-----
